; Function Attrs: mustprogress uwtable
define hidden noundef ptr @_ZN7datalog21check_relation_plugin22mk_filter_identical_fnERKNS_13relation_baseEjPKj(ptr noundef nonnull readonly align 8 captures(none) dereferenceable(56) %0, ptr noundef nonnull readonly align 8 dereferenceable(28) %1, i32 noundef %2, ptr noundef %3) unnamed_addr #3 align 2 personality ptr @__gxx_personality_v0 {
  %5 = tail call ptr @__dynamic_cast(ptr nonnull readonly align 8 dereferenceable(28) %1, ptr nonnull @_ZTIN7datalog13relation_baseE, ptr nonnull @_ZTIN7datalog14check_relationE, i64 0) #24
  %6 = icmp eq ptr %5, null
  br i1 %6, label %7, label %_ZN7datalog21check_relation_plugin3getERKNS_13relation_baseE.exit

7:                                                ; preds = %4
  tail call void @__cxa_bad_cast() #27
  unreachable

_ZN7datalog21check_relation_plugin3getERKNS_13relation_baseE.exit: ; preds = %4
  %8 = getelementptr inbounds nuw i8, ptr %0, i64 48
  %9 = load ptr, ptr %8, align 8, !tbaa !384
  %10 = getelementptr inbounds nuw i8, ptr %5, i64 40
  %11 = load ptr, ptr %10, align 8, !tbaa !29
  %12 = load ptr, ptr %9, align 8, !tbaa !3
  %13 = getelementptr inbounds nuw i8, ptr %12, i64 136
  %14 = load ptr, ptr %13, align 8
  %15 = tail call noundef ptr %14(ptr noundef nonnull align 8 dereferenceable(32) %9, ptr noundef nonnull align 8 dereferenceable(28) %11, i32 noundef %2, ptr noundef %3)
  %.not = icmp eq ptr %15, null
  br i1 %.not, label %36, label %16

16:                                               ; preds = %_ZN7datalog21check_relation_plugin3getERKNS_13relation_baseE.exit
  %17 = tail call noalias noundef ptr @_ZN6memory8allocateEm(i64 noundef 24)
  store ptr getelementptr inbounds nuw inrange(-16, 40) (i8, ptr @_ZTVN7datalog21check_relation_plugin19filter_identical_fnE, i64 16), ptr %17, align 8, !tbaa !3
  %18 = getelementptr inbounds nuw i8, ptr %17, i64 8
  store ptr null, ptr %18, align 8, !tbaa !396
  %.not.i.i.i = icmp eq i32 %2, 0
  br i1 %.not.i.i.i, label %_ZN7datalog21check_relation_plugin19filter_identical_fnC2EPNS_17tr_infrastructureINS_15relation_traitsEE10mutator_fnEjPKj.exit, label %.lr.ph.preheader.i.i.i

.lr.ph.preheader.i.i.i:                           ; preds = %16
  %wide.trip.count.i.i.i = zext i32 %2 to i64
  br label %.lr.ph.i.i.i

.lr.ph.i.i.i:                                     ; preds = %_ZN6vectorIjLb0EjE9push_backERKj.exit.i.i.i, %.lr.ph.preheader.i.i.i
  %19 = phi ptr [ null, %.lr.ph.preheader.i.i.i ], [ %28, %_ZN6vectorIjLb0EjE9push_backERKj.exit.i.i.i ]
  %indvars.iv.i.i.i = phi i64 [ 0, %.lr.ph.preheader.i.i.i ], [ %indvars.iv.next.i.i.i, %_ZN6vectorIjLb0EjE9push_backERKj.exit.i.i.i ]
  %20 = getelementptr inbounds nuw i32, ptr %3, i64 %indvars.iv.i.i.i
  %21 = icmp eq ptr %19, null
  br i1 %21, label %.noexc.i, label %22

22:                                               ; preds = %.lr.ph.i.i.i
  %23 = getelementptr inbounds i8, ptr %19, i64 -4
  %24 = load i32, ptr %23, align 4, !tbaa !14
  %25 = getelementptr inbounds i8, ptr %19, i64 -8
  %26 = load i32, ptr %25, align 4, !tbaa !14
  %27 = icmp eq i32 %24, %26
  br i1 %27, label %.noexc.i, label %_ZN6vectorIjLb0EjE9push_backERKj.exit.i.i.i

.noexc.i:                                         ; preds = %22, %.lr.ph.i.i.i
  tail call void @_ZN6vectorIjLb0EjE13expand_vectorEv(ptr noundef nonnull align 8 dereferenceable(8) %18)
  %.pre.i.i.i.i = load ptr, ptr %18, align 8, !tbaa !396
  %.phi.trans.insert.i.i.i.i = getelementptr inbounds i8, ptr %.pre.i.i.i.i, i64 -4
  %.pre2.i.i.i.i = load i32, ptr %.phi.trans.insert.i.i.i.i, align 4, !tbaa !14
  br label %_ZN6vectorIjLb0EjE9push_backERKj.exit.i.i.i

_ZN6vectorIjLb0EjE9push_backERKj.exit.i.i.i:      ; preds = %.noexc.i, %22
  %28 = phi ptr [ %.pre.i.i.i.i, %.noexc.i ], [ %19, %22 ]
  %29 = phi i32 [ %.pre2.i.i.i.i, %.noexc.i ], [ %24, %22 ]
  %30 = getelementptr inbounds i8, ptr %28, i64 -4
  %31 = zext i32 %29 to i64
  %32 = getelementptr inbounds nuw i32, ptr %28, i64 %31
  %33 = load i32, ptr %20, align 4, !tbaa !14
  store i32 %33, ptr %32, align 4, !tbaa !14
  %34 = add i32 %29, 1
  store i32 %34, ptr %30, align 4, !tbaa !14
  %indvars.iv.next.i.i.i = add nuw nsw i64 %indvars.iv.i.i.i, 1
  %exitcond.not.i.i.i = icmp eq i64 %indvars.iv.next.i.i.i, %wide.trip.count.i.i.i
  br i1 %exitcond.not.i.i.i, label %_ZN7datalog21check_relation_plugin19filter_identical_fnC2EPNS_17tr_infrastructureINS_15relation_traitsEE10mutator_fnEjPKj.exit, label %.lr.ph.i.i.i, !llvm.loop !635

_ZN7datalog21check_relation_plugin19filter_identical_fnC2EPNS_17tr_infrastructureINS_15relation_traitsEE10mutator_fnEjPKj.exit: ; preds = %_ZN6vectorIjLb0EjE9push_backERKj.exit.i.i.i, %16
  %35 = getelementptr inbounds nuw i8, ptr %17, i64 16
  store ptr %15, ptr %35, align 8, !tbaa !636
  br label %36

36:                                               ; preds = %_ZN7datalog21check_relation_plugin3getERKNS_13relation_baseE.exit, %_ZN7datalog21check_relation_plugin19filter_identical_fnC2EPNS_17tr_infrastructureINS_15relation_traitsEE10mutator_fnEjPKj.exit
  %37 = phi ptr [ %17, %_ZN7datalog21check_relation_plugin19filter_identical_fnC2EPNS_17tr_infrastructureINS_15relation_traitsEE10mutator_fnEjPKj.exit ], [ null, %_ZN7datalog21check_relation_plugin3getERKNS_13relation_baseE.exit ]
  ret ptr %37
}